target datalayout = "e-m:e-p270:32:32-p271:32:32-p272:64:64-i64:64-i128:128-f80:128-n8:16:32:64-S128"
target triple = "x86_64-pc-linux-gnu"

%struct.stream_pdu_t = type { ptr, i32, i32 }
%struct.stream_pdu_fragment = type { i32, ptr, i8 }

@.str = private unnamed_addr constant [29 x i8] c"%s:%u: failed assertion \22%s\22\00", align 1
@.str.1 = private unnamed_addr constant [14 x i8] c"epan/stream.c\00", align 1
@.str.5 = private unnamed_addr constant [5 x i8] c"frag\00", align 1

; Function Attrs: null_pointer_is_valid sspstrong uwtable
define hidden i32 @stream_get_pdu_no(ptr noundef %0) #0 {
  %2 = alloca ptr, align 8
  store ptr %0, ptr %2, align 8
  %3 = load ptr, ptr %2, align 8
  %4 = icmp ne ptr %3, null
  br i1 %4, label %5, label %6

5:                                                ; preds = %1
  br label %8

6:                                                ; preds = %1
  call void (ptr, ...) @proto_report_dissector_bug(ptr noundef @.str, ptr noundef @.str.1, i32 noundef 414, ptr noundef @.str.5) #7
  unreachable

7:                                                ; No predecessors!
  br label %8

8:                                                ; preds = %7, %5
  %9 = load ptr, ptr %2, align 8
  %10 = getelementptr inbounds nuw %struct.stream_pdu_fragment, ptr %9, i32 0, i32 1
  %11 = load ptr, ptr %10, align 8
  %12 = getelementptr inbounds nuw %struct.stream_pdu_t, ptr %11, i32 0, i32 1
  %13 = load i32, ptr %12, align 8
  ret i32 %13
}